; Function Attrs: mustprogress uwtable
define dso_local noundef nonnull align 8 dereferenceable(32) ptr @_ZN4absl19str_format_internal10AppendPackEPNSt7__cxx1112basic_stringIcSt11char_traitsIcESaIcEEENS0_21UntypedFormatSpecImplENS_4SpanIKNS0_13FormatArgImplEEE(ptr noundef returned %0, ptr %1, i64 %2, ptr %3, i64 %4) local_unnamed_addr #0 {
  %6 = getelementptr inbounds nuw i8, ptr %0, i64 8
  %7 = load i64, ptr %6, align 8, !tbaa !33
  %8 = tail call noundef zeroext i1 @_ZN4absl19str_format_internal13FormatUntypedENS0_17FormatRawSinkImplENS0_21UntypedFormatSpecImplENS_4SpanIKNS0_13FormatArgImplEEE(ptr %0, ptr nonnull @_ZN4absl19str_format_internal17FormatRawSinkImpl5FlushINSt7__cxx1112basic_stringIcSt11char_traitsIcESaIcEEEEEvPvSt17basic_string_viewIcS6_E, ptr %1, i64 %2, ptr %3, i64 %4)
  br i1 %8, label %15, label %9, !prof !66

9:                                                ; preds = %5
  %10 = load i64, ptr %6, align 8, !tbaa !33
  %11 = icmp ugt i64 %7, %10
  br i1 %11, label %12, label %_ZNSt7__cxx1112basic_stringIcSt11char_traitsIcESaIcEE5eraseEmm.exit

12:                                               ; preds = %9
  tail call void (ptr, ...) @_ZSt24__throw_out_of_range_fmtPKcz(ptr noundef nonnull @.str.27, ptr noundef nonnull @.str.30, i64 noundef %7, i64 noundef %10) #19
  unreachable

_ZNSt7__cxx1112basic_stringIcSt11char_traitsIcESaIcEE5eraseEmm.exit: ; preds = %9
  store i64 %7, ptr %6, align 8, !tbaa !33
  %13 = load ptr, ptr %0, align 8, !tbaa !70
  %14 = getelementptr inbounds nuw i8, ptr %13, i64 %7
  store i8 0, ptr %14, align 1, !tbaa !16
  br label %15

15:                                               ; preds = %_ZNSt7__cxx1112basic_stringIcSt11char_traitsIcESaIcEE5eraseEmm.exit, %5
  ret ptr %0
}